target datalayout = "e-m:e-p270:32:32-p271:32:32-p272:64:64-i64:64-i128:128-f80:128-n8:16:32:64-S128"
target triple = "x86_64-pc-linux-gnu"

%"struct.std::_Vector_base.39" = type { %"struct.std::_Vector_base<std::__cxx11::basic_string<char>, std::allocator<std::__cxx11::basic_string<char>>>::_Vector_impl" }
%"struct.std::_Vector_base<std::__cxx11::basic_string<char>, std::allocator<std::__cxx11::basic_string<char>>>::_Vector_impl" = type { %"struct.std::_Vector_base<std::__cxx11::basic_string<char>, std::allocator<std::__cxx11::basic_string<char>>>::_Vector_impl_data" }
%"struct.std::_Vector_base<std::__cxx11::basic_string<char>, std::allocator<std::__cxx11::basic_string<char>>>::_Vector_impl_data" = type { ptr, ptr, ptr }
%"class.__gnu_cxx::__normal_iterator.161" = type { ptr }
%"struct.__gnu_cxx::__ops::_Iter_equals_val" = type { ptr }

; Function Attrs: inlinehint mustprogress nounwind uwtable
define linkonce_odr dso_local void @_ZSt19__iterator_categoryIN9__gnu_cxx17__normal_iteratorIPKNSt7__cxx1112basic_stringIcSt11char_traitsIcESaIcEEESt6vectorIS7_SaIS7_EEEEENSt15iterator_traitsIT_E17iterator_categoryERKSF_(ptr noundef nonnull align 8 dereferenceable(8) %0) #4 comdat {
  %2 = alloca ptr, align 8
  store ptr %0, ptr %2, align 8, !tbaa !465
  ret void
}

; Function Attrs: mustprogress nounwind uwtable
define linkonce_odr dso_local void @_ZN9__gnu_cxx5__ops16_Iter_equals_valIKNSt7__cxx1112basic_stringIcSt11char_traitsIcESaIcEEEEC2ERS8_(ptr noundef nonnull align 8 dereferenceable(8) %0, ptr noundef nonnull align 8 dereferenceable(32) %1) unnamed_addr #2 comdat align 2 {
  %3 = alloca ptr, align 8
  %4 = alloca ptr, align 8
  store ptr %0, ptr %3, align 8, !tbaa !1206
  store ptr %1, ptr %4, align 8, !tbaa !50
  %5 = load ptr, ptr %3, align 8
  %6 = getelementptr inbounds nuw %"struct.__gnu_cxx::__ops::_Iter_equals_val", ptr %5, i32 0, i32 0
  %7 = load ptr, ptr %4, align 8, !tbaa !50
  store ptr %7, ptr %6, align 8, !tbaa !50
  ret void
}

; Function Attrs: mustprogress nounwind uwtable
define linkonce_odr dso_local noundef nonnull align 8 dereferenceable(8) ptr @_ZNK9__gnu_cxx17__normal_iteratorIPKNSt7__cxx1112basic_stringIcSt11char_traitsIcESaIcEEESt6vectorIS6_SaIS6_EEE4baseEv(ptr noundef nonnull align 8 dereferenceable(8) %0) #2 comdat align 2 {
  %2 = alloca ptr, align 8
  store ptr %0, ptr %2, align 8, !tbaa !465
  %3 = load ptr, ptr %2, align 8
  %4 = getelementptr inbounds nuw %"class.__gnu_cxx::__normal_iterator.161", ptr %3, i32 0, i32 0
  ret ptr %4
}

; Function Attrs: inlinehint mustprogress uwtable
define linkonce_odr dso_local ptr @_ZSt9__find_ifIN9__gnu_cxx17__normal_iteratorIPKNSt7__cxx1112basic_stringIcSt11char_traitsIcESaIcEEESt6vectorIS7_SaIS7_EEEENS0_5__ops16_Iter_equals_valIS8_EEET_SH_SH_T0_(ptr %0, ptr %1, ptr %2) #5 comdat {
  %4 = alloca %"class.__gnu_cxx::__normal_iterator.161", align 8
  %5 = alloca %"class.__gnu_cxx::__normal_iterator.161", align 8
  %6 = alloca %"class.__gnu_cxx::__normal_iterator.161", align 8
  %7 = alloca %"struct.__gnu_cxx::__ops::_Iter_equals_val", align 8
  %8 = alloca %"class.__gnu_cxx::__normal_iterator.161", align 8
  %9 = alloca %"class.__gnu_cxx::__normal_iterator.161", align 8
  %10 = alloca %"struct.__gnu_cxx::__ops::_Iter_equals_val", align 8
  %11 = getelementptr inbounds nuw %"class.__gnu_cxx::__normal_iterator.161", ptr %5, i32 0, i32 0
  store ptr %0, ptr %11, align 8
  %12 = getelementptr inbounds nuw %"class.__gnu_cxx::__normal_iterator.161", ptr %6, i32 0, i32 0
  store ptr %1, ptr %12, align 8
  %13 = getelementptr inbounds nuw %"struct.__gnu_cxx::__ops::_Iter_equals_val", ptr %7, i32 0, i32 0
  store ptr %2, ptr %13, align 8
  call void @llvm.memcpy.p0.p0.i64(ptr align 8 %8, ptr align 8 %5, i64 8, i1 false), !tbaa.struct !467
  call void @llvm.memcpy.p0.p0.i64(ptr align 8 %9, ptr align 8 %6, i64 8, i1 false), !tbaa.struct !467
  call void @llvm.memcpy.p0.p0.i64(ptr align 8 %10, ptr align 8 %7, i64 8, i1 false), !tbaa.struct !467
  call void @_ZSt19__iterator_categoryIN9__gnu_cxx17__normal_iteratorIPKNSt7__cxx1112basic_stringIcSt11char_traitsIcESaIcEEESt6vectorIS7_SaIS7_EEEEENSt15iterator_traitsIT_E17iterator_categoryERKSF_(ptr noundef nonnull align 8 dereferenceable(8) %5)
  %14 = getelementptr inbounds nuw %"class.__gnu_cxx::__normal_iterator.161", ptr %8, i32 0, i32 0
  %15 = load ptr, ptr %14, align 8
  %16 = getelementptr inbounds nuw %"class.__gnu_cxx::__normal_iterator.161", ptr %9, i32 0, i32 0
  %17 = load ptr, ptr %16, align 8
  %18 = getelementptr inbounds nuw %"struct.__gnu_cxx::__ops::_Iter_equals_val", ptr %10, i32 0, i32 0
  %19 = load ptr, ptr %18, align 8
  %20 = call ptr @_ZSt9__find_ifIN9__gnu_cxx17__normal_iteratorIPKNSt7__cxx1112basic_stringIcSt11char_traitsIcESaIcEEESt6vectorIS7_SaIS7_EEEENS0_5__ops16_Iter_equals_valIS8_EEET_SH_SH_T0_St26random_access_iterator_tag(ptr %15, ptr %17, ptr %19)
  %21 = getelementptr inbounds nuw %"class.__gnu_cxx::__normal_iterator.161", ptr %4, i32 0, i32 0
  store ptr %20, ptr %21, align 8
  %22 = getelementptr inbounds nuw %"class.__gnu_cxx::__normal_iterator.161", ptr %4, i32 0, i32 0
  %23 = load ptr, ptr %22, align 8
  ret ptr %23
}

; Function Attrs: inlinehint mustprogress uwtable
define linkonce_odr dso_local ptr @_ZN9__gnu_cxx5__ops17__iter_equals_valIKNSt7__cxx1112basic_stringIcSt11char_traitsIcESaIcEEEEENS0_16_Iter_equals_valIT_EERSA_(ptr noundef nonnull align 8 dereferenceable(32) %0) #5 comdat {
  %2 = alloca %"struct.__gnu_cxx::__ops::_Iter_equals_val", align 8
  %3 = alloca ptr, align 8
  store ptr %0, ptr %3, align 8, !tbaa !50
  %4 = load ptr, ptr %3, align 8, !tbaa !50
  call void @_ZN9__gnu_cxx5__ops16_Iter_equals_valIKNSt7__cxx1112basic_stringIcSt11char_traitsIcESaIcEEEEC2ERS8_(ptr noundef nonnull align 8 dereferenceable(8) %2, ptr noundef nonnull align 8 dereferenceable(32) %4)
  %5 = getelementptr inbounds nuw %"struct.__gnu_cxx::__ops::_Iter_equals_val", ptr %2, i32 0, i32 0
  %6 = load ptr, ptr %5, align 8
  ret ptr %6
}

; Function Attrs: mustprogress nounwind uwtable
define linkonce_odr dso_local void @_ZN9__gnu_cxx17__normal_iteratorIPKNSt7__cxx1112basic_stringIcSt11char_traitsIcESaIcEEESt6vectorIS6_SaIS6_EEEC2ERKS8_(ptr noundef nonnull align 8 dereferenceable(8) %0, ptr noundef nonnull align 8 dereferenceable(8) %1) unnamed_addr #2 comdat align 2 {
  %3 = alloca ptr, align 8
  %4 = alloca ptr, align 8
  store ptr %0, ptr %3, align 8, !tbaa !465
  store ptr %1, ptr %4, align 8, !tbaa !1200
  %5 = load ptr, ptr %3, align 8
  %6 = getelementptr inbounds nuw %"class.__gnu_cxx::__normal_iterator.161", ptr %5, i32 0, i32 0
  %7 = load ptr, ptr %4, align 8, !tbaa !1200
  %8 = load ptr, ptr %7, align 8, !tbaa !50
  store ptr %8, ptr %6, align 8, !tbaa !959
  ret void
}

; Function Attrs: inlinehint mustprogress nounwind uwtable
define linkonce_odr dso_local noundef zeroext i1 @_ZN9__gnu_cxxneIPKNSt7__cxx1112basic_stringIcSt11char_traitsIcESaIcEEESt6vectorIS6_SaIS6_EEEEbRKNS_17__normal_iteratorIT_T0_EESH_(ptr noundef nonnull align 8 dereferenceable(8) %0, ptr noundef nonnull align 8 dereferenceable(8) %1) #4 comdat {
  %3 = alloca ptr, align 8
  %4 = alloca ptr, align 8
  store ptr %0, ptr %3, align 8, !tbaa !465
  store ptr %1, ptr %4, align 8, !tbaa !465
  %5 = load ptr, ptr %3, align 8, !tbaa !465
  %6 = call noundef nonnull align 8 dereferenceable(8) ptr @_ZNK9__gnu_cxx17__normal_iteratorIPKNSt7__cxx1112basic_stringIcSt11char_traitsIcESaIcEEESt6vectorIS6_SaIS6_EEE4baseEv(ptr noundef nonnull align 8 dereferenceable(8) %5) #20
  %7 = load ptr, ptr %6, align 8, !tbaa !50
  %8 = load ptr, ptr %4, align 8, !tbaa !465
  %9 = call noundef nonnull align 8 dereferenceable(8) ptr @_ZNK9__gnu_cxx17__normal_iteratorIPKNSt7__cxx1112basic_stringIcSt11char_traitsIcESaIcEEESt6vectorIS6_SaIS6_EEE4baseEv(ptr noundef nonnull align 8 dereferenceable(8) %8) #20
  %10 = load ptr, ptr %9, align 8, !tbaa !50
  %11 = icmp ne ptr %7, %10
  ret i1 %11
}

; Function Attrs: inlinehint mustprogress uwtable
define linkonce_odr dso_local ptr @_ZSt4findIN9__gnu_cxx17__normal_iteratorIPKNSt7__cxx1112basic_stringIcSt11char_traitsIcESaIcEEESt6vectorIS7_SaIS7_EEEES7_ET_SE_SE_RKT0_(ptr %0, ptr %1, ptr noundef nonnull align 8 dereferenceable(32) %2) #5 comdat {
  %4 = alloca %"class.__gnu_cxx::__normal_iterator.161", align 8
  %5 = alloca %"class.__gnu_cxx::__normal_iterator.161", align 8
  %6 = alloca %"class.__gnu_cxx::__normal_iterator.161", align 8
  %7 = alloca ptr, align 8
  %8 = alloca %"class.__gnu_cxx::__normal_iterator.161", align 8
  %9 = alloca %"class.__gnu_cxx::__normal_iterator.161", align 8
  %10 = alloca %"struct.__gnu_cxx::__ops::_Iter_equals_val", align 8
  %11 = getelementptr inbounds nuw %"class.__gnu_cxx::__normal_iterator.161", ptr %5, i32 0, i32 0
  store ptr %0, ptr %11, align 8
  %12 = getelementptr inbounds nuw %"class.__gnu_cxx::__normal_iterator.161", ptr %6, i32 0, i32 0
  store ptr %1, ptr %12, align 8
  store ptr %2, ptr %7, align 8, !tbaa !50
  call void @llvm.memcpy.p0.p0.i64(ptr align 8 %8, ptr align 8 %5, i64 8, i1 false), !tbaa.struct !467
  call void @llvm.memcpy.p0.p0.i64(ptr align 8 %9, ptr align 8 %6, i64 8, i1 false), !tbaa.struct !467
  %13 = load ptr, ptr %7, align 8, !tbaa !50
  %14 = call ptr @_ZN9__gnu_cxx5__ops17__iter_equals_valIKNSt7__cxx1112basic_stringIcSt11char_traitsIcESaIcEEEEENS0_16_Iter_equals_valIT_EERSA_(ptr noundef nonnull align 8 dereferenceable(32) %13)
  %15 = getelementptr inbounds nuw %"struct.__gnu_cxx::__ops::_Iter_equals_val", ptr %10, i32 0, i32 0
  store ptr %14, ptr %15, align 8
  %16 = getelementptr inbounds nuw %"class.__gnu_cxx::__normal_iterator.161", ptr %8, i32 0, i32 0
  %17 = load ptr, ptr %16, align 8
  %18 = getelementptr inbounds nuw %"class.__gnu_cxx::__normal_iterator.161", ptr %9, i32 0, i32 0
  %19 = load ptr, ptr %18, align 8
  %20 = getelementptr inbounds nuw %"struct.__gnu_cxx::__ops::_Iter_equals_val", ptr %10, i32 0, i32 0
  %21 = load ptr, ptr %20, align 8
  %22 = call ptr @_ZSt9__find_ifIN9__gnu_cxx17__normal_iteratorIPKNSt7__cxx1112basic_stringIcSt11char_traitsIcESaIcEEESt6vectorIS7_SaIS7_EEEENS0_5__ops16_Iter_equals_valIS8_EEET_SH_SH_T0_(ptr %17, ptr %19, ptr %21)
  %23 = getelementptr inbounds nuw %"class.__gnu_cxx::__normal_iterator.161", ptr %4, i32 0, i32 0
  store ptr %22, ptr %23, align 8
  %24 = getelementptr inbounds nuw %"class.__gnu_cxx::__normal_iterator.161", ptr %4, i32 0, i32 0
  %25 = load ptr, ptr %24, align 8
  ret ptr %25
}

; Function Attrs: mustprogress nounwind uwtable
define linkonce_odr dso_local ptr @_ZNKSt6vectorINSt7__cxx1112basic_stringIcSt11char_traitsIcESaIcEEESaIS5_EE3endEv(ptr noundef nonnull align 8 dereferenceable(24) %0) #2 comdat align 2 {
  %2 = alloca %"class.__gnu_cxx::__normal_iterator.161", align 8
  %3 = alloca ptr, align 8
  store ptr %0, ptr %3, align 8, !tbaa !257
  %4 = load ptr, ptr %3, align 8
  %5 = getelementptr inbounds nuw %"struct.std::_Vector_base.39", ptr %4, i32 0, i32 0
  %6 = getelementptr inbounds nuw %"struct.std::_Vector_base<std::__cxx11::basic_string<char>, std::allocator<std::__cxx11::basic_string<char>>>::_Vector_impl_data", ptr %5, i32 0, i32 1
  call void @_ZN9__gnu_cxx17__normal_iteratorIPKNSt7__cxx1112basic_stringIcSt11char_traitsIcESaIcEEESt6vectorIS6_SaIS6_EEEC2ERKS8_(ptr noundef nonnull align 8 dereferenceable(8) %2, ptr noundef nonnull align 8 dereferenceable(8) %6) #20
  %7 = getelementptr inbounds nuw %"class.__gnu_cxx::__normal_iterator.161", ptr %2, i32 0, i32 0
  %8 = load ptr, ptr %7, align 8
  ret ptr %8
}

; Function Attrs: mustprogress nounwind uwtable
define linkonce_odr dso_local ptr @_ZNKSt6vectorINSt7__cxx1112basic_stringIcSt11char_traitsIcESaIcEEESaIS5_EE5beginEv(ptr noundef nonnull align 8 dereferenceable(24) %0) #2 comdat align 2 {
  %2 = alloca %"class.__gnu_cxx::__normal_iterator.161", align 8
  %3 = alloca ptr, align 8
  store ptr %0, ptr %3, align 8, !tbaa !257
  %4 = load ptr, ptr %3, align 8
  %5 = getelementptr inbounds nuw %"struct.std::_Vector_base.39", ptr %4, i32 0, i32 0
  %6 = getelementptr inbounds nuw %"struct.std::_Vector_base<std::__cxx11::basic_string<char>, std::allocator<std::__cxx11::basic_string<char>>>::_Vector_impl_data", ptr %5, i32 0, i32 0
  call void @_ZN9__gnu_cxx17__normal_iteratorIPKNSt7__cxx1112basic_stringIcSt11char_traitsIcESaIcEEESt6vectorIS6_SaIS6_EEEC2ERKS8_(ptr noundef nonnull align 8 dereferenceable(8) %2, ptr noundef nonnull align 8 dereferenceable(8) %6) #20
  %7 = getelementptr inbounds nuw %"class.__gnu_cxx::__normal_iterator.161", ptr %2, i32 0, i32 0
  %8 = load ptr, ptr %7, align 8
  ret ptr %8
}

; Function Attrs: mustprogress uwtable
define dso_local noundef zeroext i1 @_ZN4Luau6hasTagERKSt6vectorINSt7__cxx1112basic_stringIcSt11char_traitsIcESaIcEEESaIS6_EERKS6_(ptr noundef nonnull align 8 dereferenceable(24) %0, ptr noundef nonnull align 8 dereferenceable(32) %1) #3 {
  %3 = alloca ptr, align 8
  %4 = alloca ptr, align 8
  %5 = alloca %"class.__gnu_cxx::__normal_iterator.161", align 8
  %6 = alloca %"class.__gnu_cxx::__normal_iterator.161", align 8
  %7 = alloca %"class.__gnu_cxx::__normal_iterator.161", align 8
  %8 = alloca %"class.__gnu_cxx::__normal_iterator.161", align 8
  store ptr %0, ptr %3, align 8, !tbaa !257
  store ptr %1, ptr %4, align 8, !tbaa !50
  call void @llvm.lifetime.start.p0(i64 8, ptr %5) #20
  %9 = load ptr, ptr %3, align 8, !tbaa !257
  %10 = call ptr @_ZNKSt6vectorINSt7__cxx1112basic_stringIcSt11char_traitsIcESaIcEEESaIS5_EE5beginEv(ptr noundef nonnull align 8 dereferenceable(24) %9) #20
  %11 = getelementptr inbounds nuw %"class.__gnu_cxx::__normal_iterator.161", ptr %6, i32 0, i32 0
  store ptr %10, ptr %11, align 8
  %12 = load ptr, ptr %3, align 8, !tbaa !257
  %13 = call ptr @_ZNKSt6vectorINSt7__cxx1112basic_stringIcSt11char_traitsIcESaIcEEESaIS5_EE3endEv(ptr noundef nonnull align 8 dereferenceable(24) %12) #20
  %14 = getelementptr inbounds nuw %"class.__gnu_cxx::__normal_iterator.161", ptr %7, i32 0, i32 0
  store ptr %13, ptr %14, align 8
  %15 = load ptr, ptr %4, align 8, !tbaa !50
  %16 = getelementptr inbounds nuw %"class.__gnu_cxx::__normal_iterator.161", ptr %6, i32 0, i32 0
  %17 = load ptr, ptr %16, align 8
  %18 = getelementptr inbounds nuw %"class.__gnu_cxx::__normal_iterator.161", ptr %7, i32 0, i32 0
  %19 = load ptr, ptr %18, align 8
  %20 = call ptr @_ZSt4findIN9__gnu_cxx17__normal_iteratorIPKNSt7__cxx1112basic_stringIcSt11char_traitsIcESaIcEEESt6vectorIS7_SaIS7_EEEES7_ET_SE_SE_RKT0_(ptr %17, ptr %19, ptr noundef nonnull align 8 dereferenceable(32) %15)
  %21 = getelementptr inbounds nuw %"class.__gnu_cxx::__normal_iterator.161", ptr %5, i32 0, i32 0
  store ptr %20, ptr %21, align 8
  call void @llvm.lifetime.start.p0(i64 8, ptr %8) #20
  %22 = load ptr, ptr %3, align 8, !tbaa !257
  %23 = call ptr @_ZNKSt6vectorINSt7__cxx1112basic_stringIcSt11char_traitsIcESaIcEEESaIS5_EE3endEv(ptr noundef nonnull align 8 dereferenceable(24) %22) #20
  %24 = getelementptr inbounds nuw %"class.__gnu_cxx::__normal_iterator.161", ptr %8, i32 0, i32 0
  store ptr %23, ptr %24, align 8
  %25 = call noundef zeroext i1 @_ZN9__gnu_cxxneIPKNSt7__cxx1112basic_stringIcSt11char_traitsIcESaIcEEESt6vectorIS6_SaIS6_EEEEbRKNS_17__normal_iteratorIT_T0_EESH_(ptr noundef nonnull align 8 dereferenceable(8) %5, ptr noundef nonnull align 8 dereferenceable(8) %8) #20
  call void @llvm.lifetime.end.p0(i64 8, ptr %8) #20
  call void @llvm.lifetime.end.p0(i64 8, ptr %5) #20
  ret i1 %25
}