; Function Attrs: mustprogress uwtable
define dso_local noundef zeroext i1 @_ZN4Luau6hasTagERKSt6vectorINSt7__cxx1112basic_stringIcSt11char_traitsIcESaIcEEESaIS6_EERKS6_(ptr noundef nonnull readonly align 8 captures(none) dereferenceable(24) %0, ptr noundef nonnull align 8 dereferenceable(32) %1) local_unnamed_addr #2 {
  %3 = load ptr, ptr %0, align 8, !tbaa !243
  %4 = getelementptr inbounds nuw i8, ptr %0, i64 8
  %5 = load ptr, ptr %4, align 8, !tbaa !243
  %6 = tail call ptr @_ZSt9__find_ifIN9__gnu_cxx17__normal_iteratorIPKNSt7__cxx1112basic_stringIcSt11char_traitsIcESaIcEEESt6vectorIS7_SaIS7_EEEENS0_5__ops16_Iter_equals_valIS8_EEET_SH_SH_T0_St26random_access_iterator_tag(ptr %3, ptr %5, ptr nonnull align 8 dereferenceable(32) %1)
  %7 = load ptr, ptr %4, align 8, !tbaa !243
  %8 = icmp ne ptr %6, %7
  ret i1 %8
}